target datalayout = "e-m:e-p270:32:32-p271:32:32-p272:64:64-i64:64-i128:128-f80:128-n8:16:32:64-S128"
target triple = "x86_64-pc-linux-gnu"

%"class.icu_77::CalendarAstronomer" = type <{ double, double, double, double, double, %"class.icu_77::CalendarAstronomer::Equatorial", i8, [7 x i8] }>
%"class.icu_77::CalendarAstronomer::Equatorial" = type { double, double }

; Function Attrs: inlinehint mustprogress uwtable
define linkonce_odr noundef double @_ZN6icu_779ClockMath11floorDivideEdd(double noundef %0, double noundef %1) #3 comdat align 2 {
  %3 = alloca double, align 8
  %4 = alloca double, align 8
  store double %0, ptr %3, align 8, !tbaa !15
  store double %1, ptr %4, align 8, !tbaa !15
  %5 = load double, ptr %3, align 8, !tbaa !15
  %6 = load double, ptr %4, align 8, !tbaa !15
  %7 = fdiv double %5, %6
  %8 = call double @uprv_floor_77(double noundef %7)
  ret double %8
}

; Function Attrs: mustprogress uwtable
define void @_ZN6icu_7718CalendarAstronomer10clearCacheEv(ptr noundef nonnull align 8 dereferenceable(57) %0) #0 align 2 {
  %2 = alloca ptr, align 8
  %3 = alloca double, align 8
  store ptr %0, ptr %2, align 8, !tbaa !3
  %4 = load ptr, ptr %2, align 8
  call void @llvm.lifetime.start.p0(i64 8, ptr %3) #10
  %5 = call double @uprv_getNaN_77()
  store double %5, ptr %3, align 8, !tbaa !15
  %6 = load double, ptr %3, align 8, !tbaa !15
  %7 = getelementptr inbounds nuw %"class.icu_77::CalendarAstronomer", ptr %4, i32 0, i32 1
  store double %6, ptr %7, align 8, !tbaa !18
  %8 = load double, ptr %3, align 8, !tbaa !15
  %9 = getelementptr inbounds nuw %"class.icu_77::CalendarAstronomer", ptr %4, i32 0, i32 2
  store double %8, ptr %9, align 8, !tbaa !19
  %10 = load double, ptr %3, align 8, !tbaa !15
  %11 = getelementptr inbounds nuw %"class.icu_77::CalendarAstronomer", ptr %4, i32 0, i32 3
  store double %10, ptr %11, align 8, !tbaa !20
  %12 = load double, ptr %3, align 8, !tbaa !15
  %13 = getelementptr inbounds nuw %"class.icu_77::CalendarAstronomer", ptr %4, i32 0, i32 4
  store double %12, ptr %13, align 8, !tbaa !21
  %14 = getelementptr inbounds nuw %"class.icu_77::CalendarAstronomer", ptr %4, i32 0, i32 6
  store i8 0, ptr %14, align 8, !tbaa !12
  call void @llvm.lifetime.end.p0(i64 8, ptr %3) #10
  ret void
}

; Function Attrs: inlinehint mustprogress uwtable
define internal noundef double @_ZN6icu_77L9normalizeEdd(double noundef %0, double noundef %1) #3 {
  %3 = alloca double, align 8
  %4 = alloca double, align 8
  store double %0, ptr %3, align 8, !tbaa !15
  store double %1, ptr %4, align 8, !tbaa !15
  %5 = load double, ptr %3, align 8, !tbaa !15
  %6 = load double, ptr %4, align 8, !tbaa !15
  %7 = load double, ptr %3, align 8, !tbaa !15
  %8 = load double, ptr %4, align 8, !tbaa !15
  %9 = call noundef double @_ZN6icu_779ClockMath11floorDivideEdd(double noundef %7, double noundef %8)
  %10 = fneg double %6
  %11 = call double @llvm.fmuladd.f64(double %10, double %9, double %5)
  ret double %11
}

; Function Attrs: inlinehint mustprogress uwtable
define internal noundef double @_ZN6icu_77L6normPIEd(double noundef %0) #3 {
  %2 = alloca double, align 8
  store double %0, ptr %2, align 8, !tbaa !15
  %3 = load double, ptr %2, align 8, !tbaa !15
  %4 = fadd double %3, 0x400921FB54442D18
  %5 = call noundef double @_ZN6icu_77L9normalizeEdd(double noundef %4, double noundef 0x401921FB54442D18)
  %6 = fsub double %5, 0x400921FB54442D18
  ret double %6
}

; Function Attrs: mustprogress uwtable
define void @_ZN6icu_7718CalendarAstronomer7setTimeEd(ptr noundef nonnull align 8 dereferenceable(57) %0, double noundef %1) #0 align 2 {
  %3 = alloca ptr, align 8
  %4 = alloca double, align 8
  store ptr %0, ptr %3, align 8, !tbaa !3
  store double %1, ptr %4, align 8, !tbaa !15
  %5 = load ptr, ptr %3, align 8
  %6 = load double, ptr %4, align 8, !tbaa !15
  %7 = getelementptr inbounds nuw %"class.icu_77::CalendarAstronomer", ptr %5, i32 0, i32 0
  store double %6, ptr %7, align 8, !tbaa !8
  call void @_ZN6icu_7718CalendarAstronomer10clearCacheEv(ptr noundef nonnull align 8 dereferenceable(57) %5)
  ret void
}

; Function Attrs: inlinehint mustprogress uwtable
define internal noundef double @_ZN6icu_77L7norm2PIEd(double noundef %0) #3 {
  %2 = alloca double, align 8
  store double %0, ptr %2, align 8, !tbaa !15
  %3 = load double, ptr %2, align 8, !tbaa !15
  %4 = call noundef double @_ZN6icu_77L9normalizeEdd(double noundef %3, double noundef 0x401921FB54442D18)
  ret double %4
}

; Function Attrs: mustprogress uwtable
define noundef double @_ZN6icu_7718CalendarAstronomer11timeOfAngleERNS0_9AngleFuncEddda(ptr noundef nonnull align 8 dereferenceable(57) %0, ptr noundef nonnull align 8 dereferenceable(8) %1, double noundef %2, double noundef %3, double noundef %4, i8 noundef signext %5) #0 align 2 {
  %7 = alloca double, align 8
  %8 = alloca ptr, align 8
  %9 = alloca ptr, align 8
  %10 = alloca double, align 8
  %11 = alloca double, align 8
  %12 = alloca double, align 8
  %13 = alloca i8, align 1
  %14 = alloca double, align 8
  %15 = alloca double, align 8
  %16 = alloca double, align 8
  %17 = alloca double, align 8
  %18 = alloca double, align 8
  %19 = alloca double, align 8
  %20 = alloca double, align 8
  %21 = alloca double, align 8
  %22 = alloca i32, align 4
  store ptr %0, ptr %8, align 8, !tbaa !3
  store ptr %1, ptr %9, align 8, !tbaa !28
  store double %2, ptr %10, align 8, !tbaa !15
  store double %3, ptr %11, align 8, !tbaa !15
  store double %4, ptr %12, align 8, !tbaa !15
  store i8 %5, ptr %13, align 1, !tbaa !32
  %23 = load ptr, ptr %8, align 8
  call void @llvm.lifetime.start.p0(i64 8, ptr %14) #10
  %24 = load ptr, ptr %9, align 8, !tbaa !28
  %25 = load ptr, ptr %24, align 8, !tbaa !33
  %26 = getelementptr inbounds ptr, ptr %25, i64 0
  %27 = load ptr, ptr %26, align 8
  %28 = call noundef double %27(ptr noundef nonnull align 8 dereferenceable(8) %24, ptr noundef nonnull align 8 dereferenceable(57) %23)
  store double %28, ptr %14, align 8, !tbaa !15
  call void @llvm.lifetime.start.p0(i64 8, ptr %15) #10
  %29 = load double, ptr %10, align 8, !tbaa !15
  %30 = load double, ptr %14, align 8, !tbaa !15
  %31 = fsub double %29, %30
  %32 = call noundef double @_ZN6icu_77L7norm2PIEd(double noundef %31)
  store double %32, ptr %15, align 8, !tbaa !15
  call void @llvm.lifetime.start.p0(i64 8, ptr %16) #10
  %33 = load double, ptr %15, align 8, !tbaa !15
  %34 = load i8, ptr %13, align 1, !tbaa !32
  %35 = icmp ne i8 %34, 0
  %36 = select i1 %35, double 0.000000e+00, double 0xC01921FB54442D18
  %37 = fadd double %33, %36
  %38 = load double, ptr %11, align 8, !tbaa !15
  %39 = fmul double %38, 8.640000e+07
  %40 = fmul double %37, %39
  %41 = fdiv double %40, 0x401921FB54442D18
  store double %41, ptr %16, align 8, !tbaa !15
  call void @llvm.lifetime.start.p0(i64 8, ptr %17) #10
  %42 = load double, ptr %16, align 8, !tbaa !15
  store double %42, ptr %17, align 8, !tbaa !15
  call void @llvm.lifetime.start.p0(i64 8, ptr %18) #10
  %43 = getelementptr inbounds nuw %"class.icu_77::CalendarAstronomer", ptr %23, i32 0, i32 0
  %44 = load double, ptr %43, align 8, !tbaa !8
  store double %44, ptr %18, align 8, !tbaa !15
  %45 = getelementptr inbounds nuw %"class.icu_77::CalendarAstronomer", ptr %23, i32 0, i32 0
  %46 = load double, ptr %45, align 8, !tbaa !8
  %47 = load double, ptr %16, align 8, !tbaa !15
  %48 = call double @uprv_ceil_77(double noundef %47)
  %49 = fadd double %46, %48
  call void @_ZN6icu_7718CalendarAstronomer7setTimeEd(ptr noundef nonnull align 8 dereferenceable(57) %23, double noundef %49)
  br label %50

50:                                               ; preds = %107, %6
  call void @llvm.lifetime.start.p0(i64 8, ptr %19) #10
  %51 = load ptr, ptr %9, align 8, !tbaa !28
  %52 = load ptr, ptr %51, align 8, !tbaa !33
  %53 = getelementptr inbounds ptr, ptr %52, i64 0
  %54 = load ptr, ptr %53, align 8
  %55 = call noundef double %54(ptr noundef nonnull align 8 dereferenceable(8) %51, ptr noundef nonnull align 8 dereferenceable(57) %23)
  store double %55, ptr %19, align 8, !tbaa !15
  call void @llvm.lifetime.start.p0(i64 8, ptr %20) #10
  %56 = load double, ptr %16, align 8, !tbaa !15
  %57 = load double, ptr %19, align 8, !tbaa !15
  %58 = load double, ptr %14, align 8, !tbaa !15
  %59 = fsub double %57, %58
  %60 = call noundef double @_ZN6icu_77L6normPIEd(double noundef %59)
  %61 = fdiv double %56, %60
  %62 = call double @uprv_fabs_77(double noundef %61)
  store double %62, ptr %20, align 8, !tbaa !15
  %63 = load double, ptr %10, align 8, !tbaa !15
  %64 = load double, ptr %19, align 8, !tbaa !15
  %65 = fsub double %63, %64
  %66 = call noundef double @_ZN6icu_77L6normPIEd(double noundef %65)
  %67 = load double, ptr %20, align 8, !tbaa !15
  %68 = fmul double %66, %67
  store double %68, ptr %16, align 8, !tbaa !15
  %69 = load double, ptr %16, align 8, !tbaa !15
  %70 = call double @uprv_fabs_77(double noundef %69)
  %71 = load double, ptr %17, align 8, !tbaa !15
  %72 = call double @uprv_fabs_77(double noundef %71)
  %73 = fcmp ogt double %70, %72
  br i1 %73, label %74, label %96

74:                                               ; preds = %50
  call void @llvm.lifetime.start.p0(i64 8, ptr %21) #10
  %75 = load double, ptr %11, align 8, !tbaa !15
  %76 = fmul double %75, 8.640000e+07
  %77 = fdiv double %76, 8.000000e+00
  %78 = call double @uprv_ceil_77(double noundef %77)
  store double %78, ptr %21, align 8, !tbaa !15
  %79 = load double, ptr %18, align 8, !tbaa !15
  %80 = load i8, ptr %13, align 1, !tbaa !32
  %81 = icmp ne i8 %80, 0
  br i1 %81, label %82, label %84

82:                                               ; preds = %74
  %83 = load double, ptr %21, align 8, !tbaa !15
  br label %87

84:                                               ; preds = %74
  %85 = load double, ptr %21, align 8, !tbaa !15
  %86 = fneg double %85
  br label %87

87:                                               ; preds = %84, %82
  %88 = phi double [ %83, %82 ], [ %86, %84 ]
  %89 = fadd double %79, %88
  call void @_ZN6icu_7718CalendarAstronomer7setTimeEd(ptr noundef nonnull align 8 dereferenceable(57) %23, double noundef %89)
  %90 = load ptr, ptr %9, align 8, !tbaa !28
  %91 = load double, ptr %10, align 8, !tbaa !15
  %92 = load double, ptr %11, align 8, !tbaa !15
  %93 = load double, ptr %12, align 8, !tbaa !15
  %94 = load i8, ptr %13, align 1, !tbaa !32
  %95 = call noundef double @_ZN6icu_7718CalendarAstronomer11timeOfAngleERNS0_9AngleFuncEddda(ptr noundef nonnull align 8 dereferenceable(57) %23, ptr noundef nonnull align 8 dereferenceable(8) %90, double noundef %91, double noundef %92, double noundef %93, i8 noundef signext %94)
  store double %95, ptr %7, align 8
  store i32 1, ptr %22, align 4
  call void @llvm.lifetime.end.p0(i64 8, ptr %21) #10
  br label %104

96:                                               ; preds = %50
  %97 = load double, ptr %16, align 8, !tbaa !15
  store double %97, ptr %17, align 8, !tbaa !15
  %98 = load double, ptr %19, align 8, !tbaa !15
  store double %98, ptr %14, align 8, !tbaa !15
  %99 = getelementptr inbounds nuw %"class.icu_77::CalendarAstronomer", ptr %23, i32 0, i32 0
  %100 = load double, ptr %99, align 8, !tbaa !8
  %101 = load double, ptr %16, align 8, !tbaa !15
  %102 = call double @uprv_ceil_77(double noundef %101)
  %103 = fadd double %100, %102
  call void @_ZN6icu_7718CalendarAstronomer7setTimeEd(ptr noundef nonnull align 8 dereferenceable(57) %23, double noundef %103)
  store i32 0, ptr %22, align 4
  br label %104

104:                                              ; preds = %96, %87
  call void @llvm.lifetime.end.p0(i64 8, ptr %20) #10
  call void @llvm.lifetime.end.p0(i64 8, ptr %19) #10
  %105 = load i32, ptr %22, align 4
  switch i32 %105, label %115 [
    i32 0, label %106
  ]

106:                                              ; preds = %104
  br label %107

107:                                              ; preds = %106
  %108 = load double, ptr %16, align 8, !tbaa !15
  %109 = call double @uprv_fabs_77(double noundef %108)
  %110 = load double, ptr %12, align 8, !tbaa !15
  %111 = fcmp ogt double %109, %110
  br i1 %111, label %50, label %112, !llvm.loop !35

112:                                              ; preds = %107
  %113 = getelementptr inbounds nuw %"class.icu_77::CalendarAstronomer", ptr %23, i32 0, i32 0
  %114 = load double, ptr %113, align 8, !tbaa !8
  store double %114, ptr %7, align 8
  store i32 1, ptr %22, align 4
  br label %115

115:                                              ; preds = %112, %104
  call void @llvm.lifetime.end.p0(i64 8, ptr %18) #10
  call void @llvm.lifetime.end.p0(i64 8, ptr %17) #10
  call void @llvm.lifetime.end.p0(i64 8, ptr %16) #10
  call void @llvm.lifetime.end.p0(i64 8, ptr %15) #10
  call void @llvm.lifetime.end.p0(i64 8, ptr %14) #10
  %116 = load double, ptr %7, align 8
  ret double %116
}