; Function Attrs: mustprogress uwtable
define noundef double @_ZN6icu_7718CalendarAstronomer11timeOfAngleERNS0_9AngleFuncEddda(ptr noundef nonnull align 8 dereferenceable(57) %0, ptr noundef nonnull align 8 dereferenceable(8) %1, double noundef %2, double noundef %3, double noundef %4, i8 noundef signext %5) local_unnamed_addr #0 align 2 {
  %.not = icmp eq i8 %5, 0
  %7 = select i1 %.not, double 0xC01921FB54442D18, double 0.000000e+00
  %8 = fmul double %3, 8.640000e+07
  %9 = getelementptr inbounds nuw i8, ptr %0, i64 8
  %10 = getelementptr inbounds nuw i8, ptr %0, i64 16
  %11 = getelementptr inbounds nuw i8, ptr %0, i64 24
  %12 = getelementptr inbounds nuw i8, ptr %0, i64 32
  %13 = getelementptr inbounds nuw i8, ptr %0, i64 56
  %14 = fmul double %8, 1.250000e-01
  br label %tailrecurse

tailrecurse:                                      ; preds = %51, %6
  %15 = load ptr, ptr %1, align 8, !tbaa !21
  %16 = load ptr, ptr %15, align 8
  %17 = tail call noundef double %16(ptr noundef nonnull align 8 dereferenceable(8) %1, ptr noundef nonnull align 8 dereferenceable(57) %0)
  %18 = fsub double %2, %17
  %19 = fdiv double %18, 0x401921FB54442D18
  %20 = tail call noundef double @uprv_floor_77(double noundef %19)
  %21 = tail call noundef double @llvm.fmuladd.f64(double %20, double 0xC01921FB54442D18, double %18)
  %22 = fadd double %7, %21
  %23 = fmul double %8, %22
  %24 = fdiv double %23, 0x401921FB54442D18
  %25 = load double, ptr %0, align 8, !tbaa !3
  %26 = tail call double @uprv_ceil_77(double noundef %24)
  %27 = fadd double %25, %26
  store double %27, ptr %0, align 8, !tbaa !3
  %28 = tail call double @uprv_getNaN_77()
  store double %28, ptr %9, align 8, !tbaa !9
  store double %28, ptr %10, align 8, !tbaa !10
  store double %28, ptr %11, align 8, !tbaa !11
  store double %28, ptr %12, align 8, !tbaa !12
  store i8 0, ptr %13, align 8, !tbaa !13
  br label %29

29:                                               ; preds = %57, %tailrecurse
  %.038 = phi double [ %24, %tailrecurse ], [ %47, %57 ]
  %.035 = phi double [ %17, %tailrecurse ], [ %32, %57 ]
  %30 = load ptr, ptr %1, align 8, !tbaa !21
  %31 = load ptr, ptr %30, align 8
  %32 = tail call noundef double %31(ptr noundef nonnull align 8 dereferenceable(8) %1, ptr noundef nonnull align 8 dereferenceable(57) %0)
  %33 = fsub double %32, %.035
  %34 = fadd double %33, 0x400921FB54442D18
  %35 = fdiv double %34, 0x401921FB54442D18
  %36 = tail call noundef double @uprv_floor_77(double noundef %35)
  %37 = tail call noundef double @llvm.fmuladd.f64(double %36, double 0xC01921FB54442D18, double %34)
  %38 = fadd double %37, 0xC00921FB54442D18
  %39 = fdiv double %.038, %38
  %40 = tail call double @uprv_fabs_77(double noundef %39)
  %41 = fsub double %2, %32
  %42 = fadd double %41, 0x400921FB54442D18
  %43 = fdiv double %42, 0x401921FB54442D18
  %44 = tail call noundef double @uprv_floor_77(double noundef %43)
  %45 = tail call noundef double @llvm.fmuladd.f64(double %44, double 0xC01921FB54442D18, double %42)
  %46 = fadd double %45, 0xC00921FB54442D18
  %47 = fmul double %40, %46
  %48 = tail call double @uprv_fabs_77(double noundef %47)
  %49 = tail call double @uprv_fabs_77(double noundef %.038)
  %50 = fcmp ule double %48, %49
  br i1 %50, label %57, label %51

51:                                               ; preds = %29
  %52 = tail call double @uprv_ceil_77(double noundef %14)
  %53 = fneg double %52
  %54 = select i1 %.not, double %53, double %52
  %55 = fadd double %25, %54
  store double %55, ptr %0, align 8, !tbaa !3
  %56 = tail call double @uprv_getNaN_77()
  store double %56, ptr %9, align 8, !tbaa !9
  store double %56, ptr %10, align 8, !tbaa !10
  store double %56, ptr %11, align 8, !tbaa !11
  store double %56, ptr %12, align 8, !tbaa !12
  store i8 0, ptr %13, align 8, !tbaa !13
  br label %tailrecurse

57:                                               ; preds = %29
  %58 = load double, ptr %0, align 8, !tbaa !3
  %59 = tail call double @uprv_ceil_77(double noundef %47)
  %60 = fadd double %58, %59
  store double %60, ptr %0, align 8, !tbaa !3
  %61 = tail call double @uprv_getNaN_77()
  store double %61, ptr %9, align 8, !tbaa !9
  store double %61, ptr %10, align 8, !tbaa !10
  store double %61, ptr %11, align 8, !tbaa !11
  store double %61, ptr %12, align 8, !tbaa !12
  store i8 0, ptr %13, align 8, !tbaa !13
  %62 = tail call double @uprv_fabs_77(double noundef %47)
  %63 = fcmp ogt double %62, %4
  br i1 %63, label %29, label %64, !llvm.loop !23

64:                                               ; preds = %57
  %65 = load double, ptr %0, align 8, !tbaa !3
  ret double %65
}